; Function Attrs: mustprogress nounwind uwtable
define hidden noundef ptr @_ZN19metadata_Relocation14metadata_valueEv(ptr noundef nonnull align 8 dereferenceable(24) %0) local_unnamed_addr #0 align 2 {
  %2 = getelementptr inbounds i8, ptr %0, i64 20
  %3 = load i32, ptr %2, align 4
  %4 = icmp eq i32 %3, 0
  br i1 %4, label %5, label %7

5:                                                ; preds = %1
  %6 = tail call noundef ptr @_ZN10Relocation18pd_address_in_codeEv(ptr noundef nonnull align 8 dereferenceable(20) %0) #19
  br label %_ZN19metadata_Relocation13metadata_addrEv.exit

7:                                                ; preds = %1
  %8 = getelementptr inbounds i8, ptr %0, i64 8
  %9 = load ptr, ptr %8, align 8
  %10 = getelementptr inbounds i8, ptr %9, i64 24
  %11 = load ptr, ptr %10, align 8
  %12 = getelementptr inbounds i8, ptr %11, i64 40
  %13 = load i32, ptr %12, align 8
  %14 = sext i32 %13 to i64
  %15 = getelementptr inbounds i8, ptr %11, i64 %14
  %16 = getelementptr inbounds i8, ptr %11, i64 180
  %17 = load i16, ptr %16, align 4
  %18 = zext i16 %17 to i64
  %19 = getelementptr inbounds i8, ptr %15, i64 %18
  %20 = sext i32 %3 to i64
  %21 = getelementptr ptr, ptr %19, i64 %20
  %22 = getelementptr i8, ptr %21, i64 -8
  br label %_ZN19metadata_Relocation13metadata_addrEv.exit

_ZN19metadata_Relocation13metadata_addrEv.exit:   ; preds = %5, %7
  %.0.i = phi ptr [ %6, %5 ], [ %22, %7 ]
  %23 = load ptr, ptr %.0.i, align 8
  %24 = tail call noundef ptr @_ZN8Universe12non_oop_wordEv() #19
  %25 = icmp eq ptr %23, %24
  %spec.select = select i1 %25, ptr null, ptr %23
  ret ptr %spec.select
}